target datalayout = "e-m:e-p270:32:32-p271:32:32-p272:64:64-i64:64-i128:128-f80:128-n8:16:32:64-S128"
target triple = "x86_64-pc-linux-gnu"

; Function Attrs: inlinehint nounwind uwtable
define internal i32 @ctMaskWord32GTE(i32 noundef %0, i32 noundef %1) #4 {
  %3 = alloca i32, align 4
  %4 = alloca i32, align 4
  store i32 %0, ptr %3, align 4, !tbaa !7
  store i32 %1, ptr %4, align 4, !tbaa !7
  %5 = load i32, ptr %3, align 4, !tbaa !7
  %6 = zext i32 %5 to i64
  %7 = load i32, ptr %4, align 4, !tbaa !7
  %8 = zext i32 %7 to i64
  %9 = sub i64 %6, %8
  %10 = lshr i64 %9, 63
  %11 = sub i64 %10, 1
  %12 = trunc i64 %11 to i32
  ret i32 %12
}

; Function Attrs: inlinehint nounwind uwtable
define internal i32 @min(i32 noundef %0, i32 noundef %1) #4 {
  %3 = alloca i32, align 4
  %4 = alloca i32, align 4
  %5 = alloca i32, align 4
  store i32 %0, ptr %3, align 4, !tbaa !7
  store i32 %1, ptr %4, align 4, !tbaa !7
  call void @llvm.lifetime.start.p0(i64 4, ptr %5) #9
  %6 = load i32, ptr %3, align 4, !tbaa !7
  %7 = load i32, ptr %4, align 4, !tbaa !7
  %8 = call i32 @ctMaskWord32GTE(i32 noundef %6, i32 noundef %7)
  store i32 %8, ptr %5, align 4, !tbaa !7
  %9 = load i32, ptr %3, align 4, !tbaa !7
  %10 = load i32, ptr %5, align 4, !tbaa !7
  %11 = xor i32 %10, -1
  %12 = and i32 %9, %11
  %13 = load i32, ptr %4, align 4, !tbaa !7
  %14 = load i32, ptr %5, align 4, !tbaa !7
  %15 = and i32 %13, %14
  %16 = or i32 %12, %15
  call void @llvm.lifetime.end.p0(i64 4, ptr %5) #9
  ret i32 %16
}

; Function Attrs: nounwind uwtable
define ptr @wolfSSL_get_shared_ciphers(ptr noundef %0, ptr noundef %1, i32 noundef %2) #0 {
  %4 = alloca ptr, align 8
  %5 = alloca ptr, align 8
  %6 = alloca ptr, align 8
  %7 = alloca i32, align 4
  %8 = alloca ptr, align 8
  %9 = alloca i32, align 4
  store ptr %0, ptr %5, align 8, !tbaa !61
  store ptr %1, ptr %6, align 8, !tbaa !21
  store i32 %2, ptr %7, align 4, !tbaa !7
  call void @llvm.lifetime.start.p0(i64 8, ptr %8) #9
  %10 = load ptr, ptr %5, align 8, !tbaa !61
  %11 = icmp eq ptr %10, null
  br i1 %11, label %12, label %13

12:                                               ; preds = %3
  store ptr null, ptr %4, align 8
  store i32 1, ptr %9, align 4
  br label %27

13:                                               ; preds = %3
  %14 = load ptr, ptr %5, align 8, !tbaa !61
  %15 = call ptr @wolfSSL_get_cipher_name_iana(ptr noundef %14)
  store ptr %15, ptr %8, align 8, !tbaa !21
  %16 = load i32, ptr %7, align 4, !tbaa !7
  %17 = load ptr, ptr %8, align 8, !tbaa !21
  %18 = call i64 @strlen(ptr noundef %17) #10
  %19 = add i64 %18, 1
  %20 = trunc i64 %19 to i32
  %21 = call i32 @min(i32 noundef %16, i32 noundef %20)
  store i32 %21, ptr %7, align 4, !tbaa !7
  %22 = load ptr, ptr %6, align 8, !tbaa !21
  %23 = load ptr, ptr %8, align 8, !tbaa !21
  %24 = load i32, ptr %7, align 4, !tbaa !7
  %25 = sext i32 %24 to i64
  call void @llvm.memcpy.p0.p0.i64(ptr align 1 %22, ptr align 1 %23, i64 %25, i1 false)
  %26 = load ptr, ptr %6, align 8, !tbaa !21
  store ptr %26, ptr %4, align 8
  store i32 1, ptr %9, align 4
  br label %27

27:                                               ; preds = %13, %12
  call void @llvm.lifetime.end.p0(i64 8, ptr %8) #9
  %28 = load ptr, ptr %4, align 8
  ret ptr %28
}