; Function Attrs: nounwind uwtable
define noundef ptr @wolfSSL_get_shared_ciphers(ptr noundef %0, ptr noundef writeonly captures(ret: address, provenance) %1, i32 noundef %2) local_unnamed_addr #0 {
  %4 = icmp eq ptr %0, null
  br i1 %4, label %12, label %5

5:                                                ; preds = %3
  %6 = tail call ptr @wolfSSL_get_cipher_name_iana(ptr noundef nonnull %0) #22
  %7 = tail call i64 @strlen(ptr noundef nonnull dereferenceable(1) %6) #23
  %8 = trunc i64 %7 to i32
  %9 = add i32 %8, 1
  %10 = tail call noundef i32 @llvm.umin.i32(i32 %2, i32 %9)
  %11 = sext i32 %10 to i64
  tail call void @llvm.memcpy.p0.p0.i64(ptr align 1 %1, ptr nonnull align 1 %6, i64 %11, i1 false)
  br label %12

12:                                               ; preds = %3, %5
  %.0 = phi ptr [ %1, %5 ], [ null, %3 ]
  ret ptr %.0
}